target datalayout = "e-m:e-p270:32:32-p271:32:32-p272:64:64-i64:64-i128:128-f80:128-n8:16:32:64-S128"
target triple = "x86_64-pc-linux-gnu"

@g_tree = internal global ptr null, align 8
@hf_gsm_a_bssmap_layer3_message_contents = internal global i32 0, align 4
@.str.478 = private unnamed_addr constant [25 x i8] c"Layer 3 Message Contents\00", align 1
@dtap_handle = internal global ptr null, align 8

; Function Attrs: null_pointer_is_valid sspstrong uwtable
define internal zeroext i16 @be_l3_msg(ptr noundef %0, ptr noundef %1, ptr noundef %2, i32 noundef %3, i32 noundef %4, ptr noundef %5, i32 noundef %6) #1 {
  %8 = alloca i16, align 2
  %9 = alloca ptr, align 8
  %10 = alloca ptr, align 8
  %11 = alloca ptr, align 8
  %12 = alloca i32, align 4
  %13 = alloca i32, align 4
  %14 = alloca ptr, align 8
  %15 = alloca i32, align 4
  %16 = alloca ptr, align 8
  %17 = alloca i16, align 2
  %18 = alloca i32, align 4
  store ptr %0, ptr %9, align 8
  store ptr %1, ptr %10, align 8
  store ptr %2, ptr %11, align 8
  store i32 %3, ptr %12, align 4
  store i32 %4, ptr %13, align 4
  store ptr %5, ptr %14, align 8
  store i32 %6, ptr %15, align 4
  call void @llvm.lifetime.start.p0(i64 8, ptr %16) #5
  call void @llvm.lifetime.start.p0(i64 2, ptr %17) #5
  %19 = load ptr, ptr %10, align 8
  %20 = load i32, ptr @hf_gsm_a_bssmap_layer3_message_contents, align 4
  %21 = load ptr, ptr %9, align 8
  %22 = load i32, ptr %12, align 4
  %23 = load i32, ptr %13, align 4
  %24 = call ptr (ptr, i32, ptr, i32, i32, ptr, ptr, ...) @proto_tree_add_bytes_format(ptr noundef %19, i32 noundef %20, ptr noundef %21, i32 noundef %22, i32 noundef %23, ptr noundef null, ptr noundef @.str.478)
  %25 = load ptr, ptr %9, align 8
  %26 = load i32, ptr %12, align 4
  %27 = load i32, ptr %13, align 4
  %28 = call ptr @tvb_new_subset_length(ptr noundef %25, i32 noundef %26, i32 noundef %27)
  store ptr %28, ptr %16, align 8
  %29 = load ptr, ptr %9, align 8
  %30 = load i32, ptr %12, align 4
  %31 = call zeroext i16 @tvb_get_ntohs(ptr noundef %29, i32 noundef %30)
  store i16 %31, ptr %17, align 2
  %32 = load i16, ptr %17, align 2
  %33 = zext i16 %32 to i32
  %34 = icmp eq i32 %33, 5897
  br i1 %34, label %35, label %42

35:                                               ; preds = %7
  %36 = load ptr, ptr %16, align 8
  %37 = load ptr, ptr %10, align 8
  %38 = load ptr, ptr %11, align 8
  %39 = call zeroext i16 @de_mid(ptr noundef %36, ptr noundef %37, ptr noundef %38, i32 noundef 2, i32 noundef 9, ptr noundef null, i32 noundef 0)
  %40 = load i32, ptr %13, align 4
  %41 = trunc i32 %40 to i16
  store i16 %41, ptr %8, align 2
  store i32 1, ptr %18, align 4
  br label %50

42:                                               ; preds = %7
  %43 = load ptr, ptr @dtap_handle, align 8
  %44 = load ptr, ptr %16, align 8
  %45 = load ptr, ptr %11, align 8
  %46 = load ptr, ptr @g_tree, align 8
  %47 = call i32 @call_dissector(ptr noundef %43, ptr noundef %44, ptr noundef %45, ptr noundef %46)
  %48 = load i32, ptr %13, align 4
  %49 = trunc i32 %48 to i16
  store i16 %49, ptr %8, align 2
  store i32 1, ptr %18, align 4
  br label %50

50:                                               ; preds = %42, %35
  call void @llvm.lifetime.end.p0(i64 2, ptr %17) #5
  call void @llvm.lifetime.end.p0(i64 8, ptr %16) #5
  %51 = load i16, ptr %8, align 2
  ret i16 %51
}