; Function Attrs: null_pointer_is_valid sspstrong uwtable
define internal noundef zeroext i16 @be_l3_msg(ptr noundef %0, ptr noundef %1, ptr noundef %2, i32 noundef %3, i32 noundef %4, ptr readnone captures(none) %5, i32 %6) #1 {
  %8 = load i32, ptr @hf_gsm_a_bssmap_layer3_message_contents, align 4
  %9 = tail call ptr (ptr, i32, ptr, i32, i32, ptr, ptr, ...) @proto_tree_add_bytes_format(ptr noundef %1, i32 noundef %8, ptr noundef %0, i32 noundef %3, i32 noundef %4, ptr noundef null, ptr noundef nonnull @.str.478)
  %10 = tail call ptr @tvb_new_subset_length(ptr noundef %0, i32 noundef %3, i32 noundef %4)
  %11 = tail call zeroext i16 @tvb_get_ntohs(ptr noundef %0, i32 noundef %3)
  %12 = icmp eq i16 %11, 5897
  br i1 %12, label %13, label %15

13:                                               ; preds = %7
  %14 = tail call zeroext i16 @de_mid(ptr noundef %10, ptr noundef %1, ptr noundef %2, i32 noundef 2, i32 noundef 9, ptr noundef null, i32 noundef 0)
  br label %19

15:                                               ; preds = %7
  %16 = load ptr, ptr @dtap_handle, align 8
  %17 = load ptr, ptr @g_tree, align 8
  %18 = tail call i32 @call_dissector(ptr noundef %16, ptr noundef %10, ptr noundef %2, ptr noundef %17)
  br label %19

19:                                               ; preds = %15, %13
  %.0 = trunc i32 %4 to i16
  ret i16 %.0
}